target datalayout = "e-m:e-p270:32:32-p271:32:32-p272:64:64-i64:64-i128:128-f80:128-n8:16:32:64-S128"
target triple = "x86_64-pc-linux-gnu"

%struct.UDataInfo = type { i16, i16, i8, i8, i8, i8, [4 x i8], [4 x i8], [4 x i8] }
%struct.UDataSwapper = type { i8, i8, i8, i8, ptr, ptr, ptr, ptr, ptr, ptr, ptr, ptr, ptr, ptr, ptr }

@.str.8 = private unnamed_addr constant [108 x i8] c"ubidi_swap(): data format %02x.%02x.%02x.%02x (format version %02x) is not recognized as bidi/shaping data\0A\00", align 1
@.str.9 = private unnamed_addr constant [69 x i8] c"ubidi_swap(): too few bytes (%d after header) for bidi/shaping data\0A\00", align 1
@.str.10 = private unnamed_addr constant [76 x i8] c"ubidi_swap(): too few bytes (%d after header) for all of bidi/shaping data\0A\00", align 1

; Function Attrs: inlinehint mustprogress nounwind uwtable
define internal noundef signext i8 @_ZL9U_FAILURE10UErrorCode(i32 noundef %0) #2 {
  %2 = alloca i32, align 4
  store i32 %0, ptr %2, align 4, !tbaa !11
  %3 = load i32, ptr %2, align 4, !tbaa !11
  %4 = icmp sgt i32 %3, 0
  %5 = zext i1 %4 to i8
  ret i8 %5
}

; Function Attrs: mustprogress uwtable
define internal noundef i32 @_ZL10ubidi_swapPK12UDataSwapperPKviPvP10UErrorCode(ptr noundef %0, ptr noundef %1, i32 noundef %2, ptr noundef %3, ptr noundef %4) #0 {
  %6 = alloca i32, align 4
  %7 = alloca ptr, align 8
  %8 = alloca ptr, align 8
  %9 = alloca i32, align 4
  %10 = alloca ptr, align 8
  %11 = alloca ptr, align 8
  %12 = alloca ptr, align 8
  %13 = alloca i32, align 4
  %14 = alloca ptr, align 8
  %15 = alloca ptr, align 8
  %16 = alloca ptr, align 8
  %17 = alloca [16 x i32], align 16
  %18 = alloca i32, align 4
  %19 = alloca i32, align 4
  %20 = alloca i32, align 4
  %21 = alloca i32, align 4
  %22 = alloca i32, align 4
  store ptr %0, ptr %7, align 8, !tbaa !3
  store ptr %1, ptr %8, align 8, !tbaa !8
  store i32 %2, ptr %9, align 4, !tbaa !9
  store ptr %3, ptr %10, align 8, !tbaa !8
  store ptr %4, ptr %11, align 8, !tbaa !8
  call void @llvm.lifetime.start.p0(i64 8, ptr %12) #6
  call void @llvm.lifetime.start.p0(i64 4, ptr %13) #6
  call void @llvm.lifetime.start.p0(i64 8, ptr %14) #6
  call void @llvm.lifetime.start.p0(i64 8, ptr %15) #6
  call void @llvm.lifetime.start.p0(i64 8, ptr %16) #6
  call void @llvm.lifetime.start.p0(i64 64, ptr %17) #6
  call void @llvm.lifetime.start.p0(i64 4, ptr %18) #6
  call void @llvm.lifetime.start.p0(i64 4, ptr %19) #6
  call void @llvm.lifetime.start.p0(i64 4, ptr %20) #6
  call void @llvm.lifetime.start.p0(i64 4, ptr %21) #6
  %23 = load ptr, ptr %7, align 8, !tbaa !3
  %24 = load ptr, ptr %8, align 8, !tbaa !8
  %25 = load i32, ptr %9, align 4, !tbaa !9
  %26 = load ptr, ptr %10, align 8, !tbaa !8
  %27 = load ptr, ptr %11, align 8, !tbaa !8
  %28 = call i32 @udata_swapDataHeader_77(ptr noundef %23, ptr noundef %24, i32 noundef %25, ptr noundef %26, ptr noundef %27)
  store i32 %28, ptr %13, align 4, !tbaa !9
  %29 = load ptr, ptr %11, align 8, !tbaa !8
  %30 = icmp eq ptr %29, null
  br i1 %30, label %36, label %31

31:                                               ; preds = %5
  %32 = load ptr, ptr %11, align 8, !tbaa !8
  %33 = load i32, ptr %32, align 4, !tbaa !11
  %34 = call noundef signext i8 @_ZL9U_FAILURE10UErrorCode(i32 noundef %33)
  %35 = icmp ne i8 %34, 0
  br i1 %35, label %36, label %37

36:                                               ; preds = %31, %5
  store i32 0, ptr %6, align 4
  store i32 1, ptr %22, align 4
  br label %263

37:                                               ; preds = %31
  %38 = load ptr, ptr %8, align 8, !tbaa !8
  %39 = getelementptr inbounds i8, ptr %38, i64 4
  store ptr %39, ptr %12, align 8, !tbaa !8
  %40 = load ptr, ptr %12, align 8, !tbaa !8
  %41 = getelementptr inbounds nuw %struct.UDataInfo, ptr %40, i32 0, i32 6
  %42 = getelementptr inbounds [4 x i8], ptr %41, i64 0, i64 0
  %43 = load i8, ptr %42, align 2, !tbaa !13
  %44 = zext i8 %43 to i32
  %45 = icmp eq i32 %44, 66
  br i1 %45, label %46, label %95

46:                                               ; preds = %37
  %47 = load ptr, ptr %12, align 8, !tbaa !8
  %48 = getelementptr inbounds nuw %struct.UDataInfo, ptr %47, i32 0, i32 6
  %49 = getelementptr inbounds [4 x i8], ptr %48, i64 0, i64 1
  %50 = load i8, ptr %49, align 1, !tbaa !13
  %51 = zext i8 %50 to i32
  %52 = icmp eq i32 %51, 105
  br i1 %52, label %53, label %95

53:                                               ; preds = %46
  %54 = load ptr, ptr %12, align 8, !tbaa !8
  %55 = getelementptr inbounds nuw %struct.UDataInfo, ptr %54, i32 0, i32 6
  %56 = getelementptr inbounds [4 x i8], ptr %55, i64 0, i64 2
  %57 = load i8, ptr %56, align 2, !tbaa !13
  %58 = zext i8 %57 to i32
  %59 = icmp eq i32 %58, 68
  br i1 %59, label %60, label %95

60:                                               ; preds = %53
  %61 = load ptr, ptr %12, align 8, !tbaa !8
  %62 = getelementptr inbounds nuw %struct.UDataInfo, ptr %61, i32 0, i32 6
  %63 = getelementptr inbounds [4 x i8], ptr %62, i64 0, i64 3
  %64 = load i8, ptr %63, align 1, !tbaa !13
  %65 = zext i8 %64 to i32
  %66 = icmp eq i32 %65, 105
  br i1 %66, label %67, label %95

67:                                               ; preds = %60
  %68 = load ptr, ptr %12, align 8, !tbaa !8
  %69 = getelementptr inbounds nuw %struct.UDataInfo, ptr %68, i32 0, i32 7
  %70 = getelementptr inbounds [4 x i8], ptr %69, i64 0, i64 0
  %71 = load i8, ptr %70, align 2, !tbaa !13
  %72 = zext i8 %71 to i32
  %73 = icmp eq i32 %72, 1
  br i1 %73, label %74, label %88

74:                                               ; preds = %67
  %75 = load ptr, ptr %12, align 8, !tbaa !8
  %76 = getelementptr inbounds nuw %struct.UDataInfo, ptr %75, i32 0, i32 7
  %77 = getelementptr inbounds [4 x i8], ptr %76, i64 0, i64 2
  %78 = load i8, ptr %77, align 2, !tbaa !13
  %79 = zext i8 %78 to i32
  %80 = icmp eq i32 %79, 5
  br i1 %80, label %81, label %88

81:                                               ; preds = %74
  %82 = load ptr, ptr %12, align 8, !tbaa !8
  %83 = getelementptr inbounds nuw %struct.UDataInfo, ptr %82, i32 0, i32 7
  %84 = getelementptr inbounds [4 x i8], ptr %83, i64 0, i64 3
  %85 = load i8, ptr %84, align 1, !tbaa !13
  %86 = zext i8 %85 to i32
  %87 = icmp eq i32 %86, 2
  br i1 %87, label %123, label %88

88:                                               ; preds = %81, %74, %67
  %89 = load ptr, ptr %12, align 8, !tbaa !8
  %90 = getelementptr inbounds nuw %struct.UDataInfo, ptr %89, i32 0, i32 7
  %91 = getelementptr inbounds [4 x i8], ptr %90, i64 0, i64 0
  %92 = load i8, ptr %91, align 2, !tbaa !13
  %93 = zext i8 %92 to i32
  %94 = icmp eq i32 %93, 2
  br i1 %94, label %123, label %95

95:                                               ; preds = %88, %60, %53, %46, %37
  %96 = load ptr, ptr %7, align 8, !tbaa !3
  %97 = load ptr, ptr %12, align 8, !tbaa !8
  %98 = getelementptr inbounds nuw %struct.UDataInfo, ptr %97, i32 0, i32 6
  %99 = getelementptr inbounds [4 x i8], ptr %98, i64 0, i64 0
  %100 = load i8, ptr %99, align 2, !tbaa !13
  %101 = zext i8 %100 to i32
  %102 = load ptr, ptr %12, align 8, !tbaa !8
  %103 = getelementptr inbounds nuw %struct.UDataInfo, ptr %102, i32 0, i32 6
  %104 = getelementptr inbounds [4 x i8], ptr %103, i64 0, i64 1
  %105 = load i8, ptr %104, align 1, !tbaa !13
  %106 = zext i8 %105 to i32
  %107 = load ptr, ptr %12, align 8, !tbaa !8
  %108 = getelementptr inbounds nuw %struct.UDataInfo, ptr %107, i32 0, i32 6
  %109 = getelementptr inbounds [4 x i8], ptr %108, i64 0, i64 2
  %110 = load i8, ptr %109, align 2, !tbaa !13
  %111 = zext i8 %110 to i32
  %112 = load ptr, ptr %12, align 8, !tbaa !8
  %113 = getelementptr inbounds nuw %struct.UDataInfo, ptr %112, i32 0, i32 6
  %114 = getelementptr inbounds [4 x i8], ptr %113, i64 0, i64 3
  %115 = load i8, ptr %114, align 1, !tbaa !13
  %116 = zext i8 %115 to i32
  %117 = load ptr, ptr %12, align 8, !tbaa !8
  %118 = getelementptr inbounds nuw %struct.UDataInfo, ptr %117, i32 0, i32 7
  %119 = getelementptr inbounds [4 x i8], ptr %118, i64 0, i64 0
  %120 = load i8, ptr %119, align 2, !tbaa !13
  %121 = zext i8 %120 to i32
  call void (ptr, ptr, ...) @udata_printError_77(ptr noundef %96, ptr noundef @.str.8, i32 noundef %101, i32 noundef %106, i32 noundef %111, i32 noundef %116, i32 noundef %121)
  %122 = load ptr, ptr %11, align 8, !tbaa !8
  store i32 16, ptr %122, align 4, !tbaa !11
  store i32 0, ptr %6, align 4
  store i32 1, ptr %22, align 4
  br label %263

123:                                              ; preds = %88, %81
  %124 = load ptr, ptr %8, align 8, !tbaa !8
  %125 = load i32, ptr %13, align 4, !tbaa !9
  %126 = sext i32 %125 to i64
  %127 = getelementptr inbounds i8, ptr %124, i64 %126
  store ptr %127, ptr %14, align 8, !tbaa !27
  %128 = load ptr, ptr %10, align 8, !tbaa !8
  %129 = load i32, ptr %13, align 4, !tbaa !9
  %130 = sext i32 %129 to i64
  %131 = getelementptr inbounds i8, ptr %128, i64 %130
  store ptr %131, ptr %15, align 8, !tbaa !27
  %132 = load ptr, ptr %14, align 8, !tbaa !27
  store ptr %132, ptr %16, align 8, !tbaa !20
  %133 = load i32, ptr %9, align 4, !tbaa !9
  %134 = icmp sge i32 %133, 0
  br i1 %134, label %135, label %146

135:                                              ; preds = %123
  %136 = load i32, ptr %13, align 4, !tbaa !9
  %137 = load i32, ptr %9, align 4, !tbaa !9
  %138 = sub nsw i32 %137, %136
  store i32 %138, ptr %9, align 4, !tbaa !9
  %139 = load i32, ptr %9, align 4, !tbaa !9
  %140 = icmp slt i32 %139, 64
  br i1 %140, label %141, label %145

141:                                              ; preds = %135
  %142 = load ptr, ptr %7, align 8, !tbaa !3
  %143 = load i32, ptr %9, align 4, !tbaa !9
  call void (ptr, ptr, ...) @udata_printError_77(ptr noundef %142, ptr noundef @.str.9, i32 noundef %143)
  %144 = load ptr, ptr %11, align 8, !tbaa !8
  store i32 8, ptr %144, align 4, !tbaa !11
  store i32 0, ptr %6, align 4
  store i32 1, ptr %22, align 4
  br label %263

145:                                              ; preds = %135
  br label %146

146:                                              ; preds = %145, %123
  store i32 0, ptr %18, align 4, !tbaa !9
  br label %147

147:                                              ; preds = %161, %146
  %148 = load i32, ptr %18, align 4, !tbaa !9
  %149 = icmp slt i32 %148, 16
  br i1 %149, label %150, label %164

150:                                              ; preds = %147
  %151 = load ptr, ptr %7, align 8, !tbaa !3
  %152 = load ptr, ptr %16, align 8, !tbaa !20
  %153 = load i32, ptr %18, align 4, !tbaa !9
  %154 = sext i32 %153 to i64
  %155 = getelementptr inbounds i32, ptr %152, i64 %154
  %156 = load i32, ptr %155, align 4, !tbaa !9
  %157 = call i32 @udata_readInt32_77(ptr noundef %151, i32 noundef %156)
  %158 = load i32, ptr %18, align 4, !tbaa !9
  %159 = sext i32 %158 to i64
  %160 = getelementptr inbounds [16 x i32], ptr %17, i64 0, i64 %159
  store i32 %157, ptr %160, align 4, !tbaa !9
  br label %161

161:                                              ; preds = %150
  %162 = load i32, ptr %18, align 4, !tbaa !9
  %163 = add nsw i32 %162, 1
  store i32 %163, ptr %18, align 4, !tbaa !9
  br label %147, !llvm.loop !30

164:                                              ; preds = %147
  %165 = getelementptr inbounds nuw [16 x i32], ptr %17, i64 0, i64 1
  %166 = load i32, ptr %165, align 4, !tbaa !9
  store i32 %166, ptr %21, align 4, !tbaa !9
  %167 = load i32, ptr %9, align 4, !tbaa !9
  %168 = icmp sge i32 %167, 0
  br i1 %168, label %169, label %259

169:                                              ; preds = %164
  %170 = load i32, ptr %9, align 4, !tbaa !9
  %171 = load i32, ptr %21, align 4, !tbaa !9
  %172 = icmp slt i32 %170, %171
  br i1 %172, label %173, label %177

173:                                              ; preds = %169
  %174 = load ptr, ptr %7, align 8, !tbaa !3
  %175 = load i32, ptr %9, align 4, !tbaa !9
  call void (ptr, ptr, ...) @udata_printError_77(ptr noundef %174, ptr noundef @.str.10, i32 noundef %175)
  %176 = load ptr, ptr %11, align 8, !tbaa !8
  store i32 8, ptr %176, align 4, !tbaa !11
  store i32 0, ptr %6, align 4
  store i32 1, ptr %22, align 4
  br label %263

177:                                              ; preds = %169
  %178 = load ptr, ptr %14, align 8, !tbaa !27
  %179 = load ptr, ptr %15, align 8, !tbaa !27
  %180 = icmp ne ptr %178, %179
  br i1 %180, label %181, label %189

181:                                              ; preds = %177
  br label %182

182:                                              ; preds = %181
  %183 = load ptr, ptr %15, align 8, !tbaa !27
  %184 = load ptr, ptr %14, align 8, !tbaa !27
  %185 = load i32, ptr %21, align 4, !tbaa !9
  %186 = sext i32 %185 to i64
  call void @llvm.memcpy.p0.p0.i64(ptr align 1 %183, ptr align 1 %184, i64 %186, i1 false)
  br label %187

187:                                              ; preds = %182
  br label %188

188:                                              ; preds = %187
  br label %189

189:                                              ; preds = %188, %177
  store i32 0, ptr %19, align 4, !tbaa !9
  %190 = getelementptr inbounds nuw [16 x i32], ptr %17, i64 0, i64 0
  %191 = load i32, ptr %190, align 16, !tbaa !9
  %192 = mul nsw i32 %191, 4
  store i32 %192, ptr %20, align 4, !tbaa !9
  %193 = load ptr, ptr %7, align 8, !tbaa !3
  %194 = getelementptr inbounds nuw %struct.UDataSwapper, ptr %193, i32 0, i32 10
  %195 = load ptr, ptr %194, align 8, !tbaa !24
  %196 = load ptr, ptr %7, align 8, !tbaa !3
  %197 = load ptr, ptr %14, align 8, !tbaa !27
  %198 = load i32, ptr %20, align 4, !tbaa !9
  %199 = load ptr, ptr %15, align 8, !tbaa !27
  %200 = load ptr, ptr %11, align 8, !tbaa !8
  %201 = call noundef i32 %195(ptr noundef %196, ptr noundef %197, i32 noundef %198, ptr noundef %199, ptr noundef %200)
  %202 = load i32, ptr %20, align 4, !tbaa !9
  %203 = load i32, ptr %19, align 4, !tbaa !9
  %204 = add nsw i32 %203, %202
  store i32 %204, ptr %19, align 4, !tbaa !9
  %205 = getelementptr inbounds nuw [16 x i32], ptr %17, i64 0, i64 2
  %206 = load i32, ptr %205, align 8, !tbaa !9
  store i32 %206, ptr %20, align 4, !tbaa !9
  %207 = load ptr, ptr %7, align 8, !tbaa !3
  %208 = load ptr, ptr %14, align 8, !tbaa !27
  %209 = load i32, ptr %19, align 4, !tbaa !9
  %210 = sext i32 %209 to i64
  %211 = getelementptr inbounds i8, ptr %208, i64 %210
  %212 = load i32, ptr %20, align 4, !tbaa !9
  %213 = load ptr, ptr %15, align 8, !tbaa !27
  %214 = load i32, ptr %19, align 4, !tbaa !9
  %215 = sext i32 %214 to i64
  %216 = getelementptr inbounds i8, ptr %213, i64 %215
  %217 = load ptr, ptr %11, align 8, !tbaa !8
  %218 = call i32 @utrie_swapAnyVersion_77(ptr noundef %207, ptr noundef %211, i32 noundef %212, ptr noundef %216, ptr noundef %217)
  %219 = load i32, ptr %20, align 4, !tbaa !9
  %220 = load i32, ptr %19, align 4, !tbaa !9
  %221 = add nsw i32 %220, %219
  store i32 %221, ptr %19, align 4, !tbaa !9
  %222 = getelementptr inbounds nuw [16 x i32], ptr %17, i64 0, i64 3
  %223 = load i32, ptr %222, align 4, !tbaa !9
  %224 = mul nsw i32 %223, 4
  store i32 %224, ptr %20, align 4, !tbaa !9
  %225 = load ptr, ptr %7, align 8, !tbaa !3
  %226 = getelementptr inbounds nuw %struct.UDataSwapper, ptr %225, i32 0, i32 10
  %227 = load ptr, ptr %226, align 8, !tbaa !24
  %228 = load ptr, ptr %7, align 8, !tbaa !3
  %229 = load ptr, ptr %14, align 8, !tbaa !27
  %230 = load i32, ptr %19, align 4, !tbaa !9
  %231 = sext i32 %230 to i64
  %232 = getelementptr inbounds i8, ptr %229, i64 %231
  %233 = load i32, ptr %20, align 4, !tbaa !9
  %234 = load ptr, ptr %15, align 8, !tbaa !27
  %235 = load i32, ptr %19, align 4, !tbaa !9
  %236 = sext i32 %235 to i64
  %237 = getelementptr inbounds i8, ptr %234, i64 %236
  %238 = load ptr, ptr %11, align 8, !tbaa !8
  %239 = call noundef i32 %227(ptr noundef %228, ptr noundef %232, i32 noundef %233, ptr noundef %237, ptr noundef %238)
  %240 = load i32, ptr %20, align 4, !tbaa !9
  %241 = load i32, ptr %19, align 4, !tbaa !9
  %242 = add nsw i32 %241, %240
  store i32 %242, ptr %19, align 4, !tbaa !9
  %243 = getelementptr inbounds nuw [16 x i32], ptr %17, i64 0, i64 5
  %244 = load i32, ptr %243, align 4, !tbaa !9
  %245 = getelementptr inbounds nuw [16 x i32], ptr %17, i64 0, i64 4
  %246 = load i32, ptr %245, align 16, !tbaa !9
  %247 = sub nsw i32 %244, %246
  store i32 %247, ptr %20, align 4, !tbaa !9
  %248 = load i32, ptr %20, align 4, !tbaa !9
  %249 = load i32, ptr %19, align 4, !tbaa !9
  %250 = add nsw i32 %249, %248
  store i32 %250, ptr %19, align 4, !tbaa !9
  %251 = getelementptr inbounds nuw [16 x i32], ptr %17, i64 0, i64 7
  %252 = load i32, ptr %251, align 4, !tbaa !9
  %253 = getelementptr inbounds nuw [16 x i32], ptr %17, i64 0, i64 6
  %254 = load i32, ptr %253, align 8, !tbaa !9
  %255 = sub nsw i32 %252, %254
  store i32 %255, ptr %20, align 4, !tbaa !9
  %256 = load i32, ptr %20, align 4, !tbaa !9
  %257 = load i32, ptr %19, align 4, !tbaa !9
  %258 = add nsw i32 %257, %256
  store i32 %258, ptr %19, align 4, !tbaa !9
  br label %259

259:                                              ; preds = %189, %164
  %260 = load i32, ptr %13, align 4, !tbaa !9
  %261 = load i32, ptr %21, align 4, !tbaa !9
  %262 = add nsw i32 %260, %261
  store i32 %262, ptr %6, align 4
  store i32 1, ptr %22, align 4
  br label %263

263:                                              ; preds = %259, %173, %141, %95, %36
  call void @llvm.lifetime.end.p0(i64 4, ptr %21) #6
  call void @llvm.lifetime.end.p0(i64 4, ptr %20) #6
  call void @llvm.lifetime.end.p0(i64 4, ptr %19) #6
  call void @llvm.lifetime.end.p0(i64 4, ptr %18) #6
  call void @llvm.lifetime.end.p0(i64 64, ptr %17) #6
  call void @llvm.lifetime.end.p0(i64 8, ptr %16) #6
  call void @llvm.lifetime.end.p0(i64 8, ptr %15) #6
  call void @llvm.lifetime.end.p0(i64 8, ptr %14) #6
  call void @llvm.lifetime.end.p0(i64 4, ptr %13) #6
  call void @llvm.lifetime.end.p0(i64 8, ptr %12) #6
  %264 = load i32, ptr %6, align 4
  ret i32 %264
}