; Function Attrs: mustprogress uwtable
define internal noundef i32 @_ZL10ubidi_swapPK12UDataSwapperPKviPvP10UErrorCode(ptr noundef %0, ptr noundef %1, i32 noundef %2, ptr noundef %3, ptr noundef %4) #0 {
  %6 = alloca [16 x i32], align 16
  call void @llvm.lifetime.start.p0(i64 64, ptr nonnull %6) #5
  %7 = tail call i32 @udata_swapDataHeader_77(ptr noundef %0, ptr noundef %1, i32 noundef %2, ptr noundef %3, ptr noundef %4)
  %8 = icmp eq ptr %4, null
  br i1 %8, label %98, label %9

9:                                                ; preds = %5
  %10 = load i32, ptr %4, align 4, !tbaa !3
  %11 = icmp slt i32 %10, 1
  br i1 %11, label %12, label %98

12:                                               ; preds = %9
  %13 = getelementptr inbounds nuw i8, ptr %1, i64 12
  %14 = load i8, ptr %13, align 2, !tbaa !7
  %15 = icmp eq i8 %14, 66
  %16 = getelementptr inbounds nuw i8, ptr %1, i64 13
  %17 = load i8, ptr %16, align 1, !tbaa !7
  %18 = icmp eq i8 %17, 105
  %or.cond = select i1 %15, i1 %18, i1 false
  br i1 %or.cond, label %19, label %.thread

19:                                               ; preds = %12
  %20 = getelementptr inbounds nuw i8, ptr %1, i64 14
  %21 = load i8, ptr %20, align 2, !tbaa !7
  %22 = icmp eq i8 %21, 68
  br i1 %22, label %23, label %.thread

23:                                               ; preds = %19
  %24 = getelementptr inbounds nuw i8, ptr %1, i64 15
  %25 = load i8, ptr %24, align 1, !tbaa !7
  %26 = icmp eq i8 %25, 105
  br i1 %26, label %27, label %.thread

27:                                               ; preds = %23
  %28 = getelementptr inbounds nuw i8, ptr %1, i64 16
  %29 = load i8, ptr %28, align 2, !tbaa !7
  switch i8 %29, label %.thread [
    i8 1, label %30
    i8 2, label %50
  ]

30:                                               ; preds = %27
  %31 = getelementptr inbounds nuw i8, ptr %1, i64 18
  %32 = load i8, ptr %31, align 2, !tbaa !7
  %33 = icmp eq i8 %32, 5
  br i1 %33, label %34, label %.thread

34:                                               ; preds = %30
  %35 = getelementptr inbounds nuw i8, ptr %1, i64 19
  %36 = load i8, ptr %35, align 1, !tbaa !7
  %37 = icmp eq i8 %36, 2
  br i1 %37, label %50, label %.thread

.thread:                                          ; preds = %12, %27, %30, %34, %23, %19
  %38 = phi i8 [ 105, %27 ], [ 105, %30 ], [ 105, %34 ], [ 105, %23 ], [ 105, %19 ], [ %17, %12 ]
  %39 = zext i8 %14 to i32
  %40 = zext i8 %38 to i32
  %41 = getelementptr inbounds nuw i8, ptr %1, i64 14
  %42 = load i8, ptr %41, align 2, !tbaa !7
  %43 = zext i8 %42 to i32
  %44 = getelementptr inbounds nuw i8, ptr %1, i64 15
  %45 = load i8, ptr %44, align 1, !tbaa !7
  %46 = zext i8 %45 to i32
  %47 = getelementptr inbounds nuw i8, ptr %1, i64 16
  %48 = load i8, ptr %47, align 2, !tbaa !7
  %49 = zext i8 %48 to i32
  tail call void (ptr, ptr, ...) @udata_printError_77(ptr noundef %0, ptr noundef nonnull @.str.8, i32 noundef %39, i32 noundef %40, i32 noundef %43, i32 noundef %46, i32 noundef %49)
  store i32 16, ptr %4, align 4, !tbaa !3
  br label %98

50:                                               ; preds = %27, %34
  %51 = sext i32 %7 to i64
  %52 = getelementptr inbounds i8, ptr %1, i64 %51
  %53 = getelementptr inbounds i8, ptr %3, i64 %51
  %54 = icmp sgt i32 %2, -1
  br i1 %54, label %55, label %59

55:                                               ; preds = %50
  %56 = sub nsw i32 %2, %7
  %57 = icmp slt i32 %56, 64
  br i1 %57, label %58, label %59

58:                                               ; preds = %55
  tail call void (ptr, ptr, ...) @udata_printError_77(ptr noundef %0, ptr noundef nonnull @.str.9, i32 noundef %56)
  store i32 8, ptr %4, align 4, !tbaa !3
  br label %98

59:                                               ; preds = %55, %50
  %.085 = phi i32 [ %56, %55 ], [ %2, %50 ]
  br label %60

60:                                               ; preds = %59, %60
  %indvars.iv = phi i64 [ 0, %59 ], [ %indvars.iv.next, %60 ]
  %61 = getelementptr inbounds nuw i32, ptr %52, i64 %indvars.iv
  %62 = load i32, ptr %61, align 4, !tbaa !15
  %63 = tail call i32 @udata_readInt32_77(ptr noundef %0, i32 noundef %62)
  %64 = getelementptr inbounds nuw [16 x i32], ptr %6, i64 0, i64 %indvars.iv
  store i32 %63, ptr %64, align 4, !tbaa !15
  %indvars.iv.next = add nuw nsw i64 %indvars.iv, 1
  %exitcond.not = icmp eq i64 %indvars.iv.next, 16
  br i1 %exitcond.not, label %65, label %60, !llvm.loop !23

65:                                               ; preds = %60
  %66 = getelementptr inbounds nuw i8, ptr %6, i64 4
  %67 = load i32, ptr %66, align 4, !tbaa !15
  %68 = icmp sgt i32 %.085, -1
  br i1 %68, label %69, label %96

69:                                               ; preds = %65
  %70 = icmp slt i32 %.085, %67
  br i1 %70, label %71, label %72

71:                                               ; preds = %69
  tail call void (ptr, ptr, ...) @udata_printError_77(ptr noundef %0, ptr noundef nonnull @.str.10, i32 noundef %.085)
  store i32 8, ptr %4, align 4, !tbaa !3
  br label %98

72:                                               ; preds = %69
  %.not94 = icmp eq ptr %1, %3
  br i1 %.not94, label %75, label %73

73:                                               ; preds = %72
  %74 = sext i32 %67 to i64
  tail call void @llvm.memcpy.p0.p0.i64(ptr align 1 %53, ptr nonnull align 1 %52, i64 %74, i1 false)
  br label %75

75:                                               ; preds = %73, %72
  %76 = load i32, ptr %6, align 16, !tbaa !15
  %77 = shl nsw i32 %76, 2
  %78 = getelementptr inbounds nuw i8, ptr %0, i64 56
  %79 = load ptr, ptr %78, align 8, !tbaa !19
  %80 = tail call noundef i32 %79(ptr noundef %0, ptr noundef nonnull %52, i32 noundef %77, ptr noundef %53, ptr noundef nonnull %4)
  %81 = getelementptr inbounds nuw i8, ptr %6, i64 8
  %82 = load i32, ptr %81, align 8, !tbaa !15
  %83 = sext i32 %77 to i64
  %84 = getelementptr inbounds i8, ptr %52, i64 %83
  %85 = getelementptr inbounds i8, ptr %53, i64 %83
  %86 = tail call i32 @utrie_swapAnyVersion_77(ptr noundef %0, ptr noundef nonnull %84, i32 noundef %82, ptr noundef %85, ptr noundef nonnull %4)
  %87 = add nsw i32 %82, %77
  %88 = getelementptr inbounds nuw i8, ptr %6, i64 12
  %89 = load i32, ptr %88, align 4, !tbaa !15
  %90 = shl nsw i32 %89, 2
  %91 = load ptr, ptr %78, align 8, !tbaa !19
  %92 = sext i32 %87 to i64
  %93 = getelementptr inbounds i8, ptr %52, i64 %92
  %94 = getelementptr inbounds i8, ptr %53, i64 %92
  %95 = tail call noundef i32 %91(ptr noundef %0, ptr noundef nonnull %93, i32 noundef %90, ptr noundef %94, ptr noundef nonnull %4)
  br label %96

96:                                               ; preds = %75, %65
  %97 = add nsw i32 %67, %7
  br label %98

98:                                               ; preds = %5, %9, %96, %71, %58, %.thread
  %.0 = phi i32 [ 0, %58 ], [ 0, %71 ], [ %97, %96 ], [ 0, %.thread ], [ 0, %9 ], [ 0, %5 ]
  call void @llvm.lifetime.end.p0(i64 64, ptr nonnull %6) #5
  ret i32 %.0
}